; ModuleID = '4/2111.c'
source_filename = "4/2111.c"
target datalayout = "e-m:e-p270:32:32-p271:32:32-p272:64:64-i64:64-f80:128-n8:16:32:64-S128"
target triple = "x86_64-pc-linux-gnu"

@.str = private unnamed_addr constant [6 x i8] c"%d %d\00", align 1
@.str.1 = private unnamed_addr constant [3 x i8] c"%d\00", align 1
@.str.2 = private unnamed_addr constant [4 x i8] c"%d\0A\00", align 1

; Function Attrs: noinline nounwind uwtable
define dso_local i32 @main() #0 {
  %1 = alloca i32, align 4
  %2 = alloca i32, align 4
  %3 = alloca i32, align 4
  %4 = alloca i32, align 4
  %5 = alloca i32, align 4
  %6 = alloca [101 x [101 x i32]], align 16
  store i32 0, i32* %1, align 4
  %7 = call i32 (i8*, ...) @__isoc99_scanf(i8* getelementptr inbounds ([6 x i8], [6 x i8]* @.str, i64 0, i64 0), i32* %2, i32* %3)
  store i32 0, i32* %4, align 4
  br label %8

8:                                                ; preds = %29, %0
  %9 = load i32, i32* %4, align 4
  %10 = load i32, i32* %2, align 4
  %11 = icmp slt i32 %9, %10
  br i1 %11, label %12, label %32

12:                                               ; preds = %8
  store i32 0, i32* %5, align 4
  br label %13

13:                                               ; preds = %25, %12
  %14 = load i32, i32* %5, align 4
  %15 = load i32, i32* %3, align 4
  %16 = icmp slt i32 %14, %15
  br i1 %16, label %17, label %28

17:                                               ; preds = %13
  %18 = load i32, i32* %4, align 4
  %19 = sext i32 %18 to i64
  %20 = getelementptr inbounds [101 x [101 x i32]], [101 x [101 x i32]]* %6, i64 0, i64 %19
  %21 = load i32, i32* %5, align 4
  %22 = sext i32 %21 to i64
  %23 = getelementptr inbounds [101 x i32], [101 x i32]* %20, i64 0, i64 %22
  %24 = call i32 (i8*, ...) @__isoc99_scanf(i8* getelementptr inbounds ([3 x i8], [3 x i8]* @.str.1, i64 0, i64 0), i32* %23)
  br label %25

25:                                               ; preds = %17
  %26 = load i32, i32* %5, align 4
  %27 = add nsw i32 %26, 1
  store i32 %27, i32* %5, align 4
  br label %13

28:                                               ; preds = %13
  br label %29

29:                                               ; preds = %28
  %30 = load i32, i32* %4, align 4
  %31 = add nsw i32 %30, 1
  store i32 %31, i32* %4, align 4
  br label %8

32:                                               ; preds = %8
  store i32 0, i32* %4, align 4
  br label %33

33:                                               ; preds = %75, %32
  %34 = load i32, i32* %4, align 4
  %35 = load i32, i32* %2, align 4
  %36 = load i32, i32* %3, align 4
  %37 = add nsw i32 %35, %36
  %38 = icmp slt i32 %34, %37
  br i1 %38, label %39, label %78

39:                                               ; preds = %33
  %40 = load i32, i32* %4, align 4
  %41 = load i32, i32* %3, align 4
  %42 = icmp slt i32 %40, %41
  br i1 %42, label %43, label %44

43:                                               ; preds = %39
  store i32 0, i32* %5, align 4
  br label %49

44:                                               ; preds = %39
  %45 = load i32, i32* %4, align 4
  %46 = load i32, i32* %3, align 4
  %47 = sub nsw i32 %45, %46
  %48 = add nsw i32 %47, 1
  store i32 %48, i32* %5, align 4
  br label %49

49:                                               ; preds = %44, %43
  br label %50

50:                                               ; preds = %71, %49
  %51 = load i32, i32* %5, align 4
  %52 = load i32, i32* %4, align 4
  %53 = icmp sle i32 %51, %52
  br i1 %53, label %54, label %58

54:                                               ; preds = %50
  %55 = load i32, i32* %5, align 4
  %56 = load i32, i32* %2, align 4
  %57 = icmp slt i32 %55, %56
  br label %58

58:                                               ; preds = %54, %50
  %59 = phi i1 [ false, %50 ], [ %57, %54 ]
  br i1 %59, label %60, label %74

60:                                               ; preds = %58
  %61 = load i32, i32* %5, align 4
  %62 = sext i32 %61 to i64
  %63 = getelementptr inbounds [101 x [101 x i32]], [101 x [101 x i32]]* %6, i64 0, i64 %62
  %64 = load i32, i32* %4, align 4
  %65 = load i32, i32* %5, align 4
  %66 = sub nsw i32 %64, %65
  %67 = sext i32 %66 to i64
  %68 = getelementptr inbounds [101 x i32], [101 x i32]* %63, i64 0, i64 %67
  %69 = load i32, i32* %68, align 4
  %70 = call i32 (i8*, ...) @printf(i8* getelementptr inbounds ([4 x i8], [4 x i8]* @.str.2, i64 0, i64 0), i32 %69)
  br label %71

71:                                               ; preds = %60
  %72 = load i32, i32* %5, align 4
  %73 = add nsw i32 %72, 1
  store i32 %73, i32* %5, align 4
  br label %50

74:                                               ; preds = %58
  br label %75

75:                                               ; preds = %74
  %76 = load i32, i32* %4, align 4
  %77 = add nsw i32 %76, 1
  store i32 %77, i32* %4, align 4
  br label %33

78:                                               ; preds = %33
  ret i32 0
}

declare dso_local i32 @__isoc99_scanf(i8*, ...) #1

declare dso_local i32 @printf(i8*, ...) #1


!llvm.module.flags = !{!0}
!llvm.ident = !{!1}

!0 = !{i32 1, !"wchar_size", i32 4}
!1 = !{!"clang version 10.0.0-4ubuntu1 "}
