; ModuleID = 'source-C-CXX/3/2111.c'
source_filename = "source-C-CXX/3/2111.c"
target datalayout = "e-m:e-p270:32:32-p271:32:32-p272:64:64-i64:64-f80:128-n8:16:32:64-S128"
target triple = "x86_64-pc-linux-gnu"

@.str = private unnamed_addr constant [6 x i8] c"%d %d\00", align 1
@.str.1 = private unnamed_addr constant [3 x i8] c"%d\00", align 1
@.str.2 = private unnamed_addr constant [4 x i8] c"%d\0A\00", align 1

; Function Attrs: nofree nounwind sspstrong uwtable
define dso_local i32 @main() local_unnamed_addr #0 {
  %1 = alloca i32, align 4
  %2 = alloca i32, align 4
  %3 = alloca [101 x [101 x i32]], align 16
  %4 = bitcast i32* %1 to i8*
  call void @llvm.lifetime.start.p0i8(i64 4, i8* nonnull %4) #3
  %5 = bitcast i32* %2 to i8*
  call void @llvm.lifetime.start.p0i8(i64 4, i8* nonnull %5) #3
  %6 = bitcast [101 x [101 x i32]]* %3 to i8*
  call void @llvm.lifetime.start.p0i8(i64 40804, i8* nonnull %6) #3
  %7 = call i32 (i8*, ...) @__isoc99_scanf(i8* getelementptr inbounds ([6 x i8], [6 x i8]* @.str, i64 0, i64 0), i32* nonnull %1, i32* nonnull %2)
  %8 = load i32, i32* %1, align 4, !tbaa !5
  %9 = icmp sgt i32 %8, 0
  %10 = load i32, i32* %2, align 4, !tbaa !5
  %11 = icmp sgt i32 %10, 0
  %12 = select i1 %9, i1 %11, i1 false
  br i1 %12, label %13, label %18

13:                                               ; preds = %0, %33
  %14 = phi i32 [ %34, %33 ], [ %8, %0 ]
  %15 = phi i32 [ %35, %33 ], [ %10, %0 ]
  %16 = phi i64 [ %36, %33 ], [ 0, %0 ]
  %17 = icmp sgt i32 %15, 0
  br i1 %17, label %23, label %33

18:                                               ; preds = %33, %0
  %19 = phi i32 [ %10, %0 ], [ %35, %33 ]
  %20 = phi i32 [ %8, %0 ], [ %34, %33 ]
  %21 = add nsw i32 %19, %20
  %22 = icmp sgt i32 %21, 0
  br i1 %22, label %39, label %73

23:                                               ; preds = %13, %23
  %24 = phi i64 [ %27, %23 ], [ 0, %13 ]
  %25 = getelementptr inbounds [101 x [101 x i32]], [101 x [101 x i32]]* %3, i64 0, i64 %16, i64 %24
  %26 = call i32 (i8*, ...) @__isoc99_scanf(i8* getelementptr inbounds ([3 x i8], [3 x i8]* @.str.1, i64 0, i64 0), i32* nonnull %25)
  %27 = add nuw nsw i64 %24, 1
  %28 = load i32, i32* %2, align 4, !tbaa !5
  %29 = sext i32 %28 to i64
  %30 = icmp slt i64 %27, %29
  br i1 %30, label %23, label %31, !llvm.loop !9

31:                                               ; preds = %23
  %32 = load i32, i32* %1, align 4, !tbaa !5
  br label %33

33:                                               ; preds = %31, %13
  %34 = phi i32 [ %32, %31 ], [ %14, %13 ]
  %35 = phi i32 [ %28, %31 ], [ %15, %13 ]
  %36 = add nuw nsw i64 %16, 1
  %37 = sext i32 %34 to i64
  %38 = icmp slt i64 %36, %37
  br i1 %38, label %13, label %18, !llvm.loop !11

39:                                               ; preds = %18, %67
  %40 = phi i32 [ %68, %67 ], [ %19, %18 ]
  %41 = phi i32 [ %69, %67 ], [ %20, %18 ]
  %42 = phi i64 [ %45, %67 ], [ 0, %18 ]
  %43 = sext i32 %40 to i64
  %44 = icmp slt i64 %42, %43
  %45 = add nuw nsw i64 %42, 1
  %46 = trunc i64 %45 to i32
  %47 = sub i32 %46, %40
  %48 = select i1 %44, i32 0, i32 %47
  %49 = sext i32 %48 to i64
  %50 = icmp sge i64 %42, %49
  %51 = icmp slt i32 %48, %41
  %52 = select i1 %50, i1 %51, i1 false
  br i1 %52, label %53, label %67

53:                                               ; preds = %39, %53
  %54 = phi i64 [ %59, %53 ], [ %49, %39 ]
  %55 = sub nsw i64 %42, %54
  %56 = getelementptr inbounds [101 x [101 x i32]], [101 x [101 x i32]]* %3, i64 0, i64 %54, i64 %55
  %57 = load i32, i32* %56, align 4, !tbaa !5
  %58 = call i32 (i8*, ...) @printf(i8* nonnull dereferenceable(1) getelementptr inbounds ([4 x i8], [4 x i8]* @.str.2, i64 0, i64 0), i32 %57)
  %59 = add nsw i64 %54, 1
  %60 = icmp sgt i64 %42, %54
  %61 = load i32, i32* %1, align 4
  %62 = sext i32 %61 to i64
  %63 = icmp slt i64 %59, %62
  %64 = select i1 %60, i1 %63, i1 false
  br i1 %64, label %53, label %65, !llvm.loop !13

65:                                               ; preds = %53
  %66 = load i32, i32* %2, align 4, !tbaa !5
  br label %67

67:                                               ; preds = %65, %39
  %68 = phi i32 [ %66, %65 ], [ %40, %39 ]
  %69 = phi i32 [ %61, %65 ], [ %41, %39 ]
  %70 = add nsw i32 %68, %69
  %71 = sext i32 %70 to i64
  %72 = icmp slt i64 %45, %71
  br i1 %72, label %39, label %73, !llvm.loop !14

73:                                               ; preds = %67, %18
  call void @llvm.lifetime.end.p0i8(i64 40804, i8* nonnull %6) #3
  call void @llvm.lifetime.end.p0i8(i64 4, i8* nonnull %5) #3
  call void @llvm.lifetime.end.p0i8(i64 4, i8* nonnull %4) #3
  ret i32 0
}

; Function Attrs: argmemonly mustprogress nofree nosync nounwind willreturn
declare void @llvm.lifetime.start.p0i8(i64 immarg, i8* nocapture) #1

; Function Attrs: nofree nounwind
declare noundef i32 @__isoc99_scanf(i8* nocapture noundef readonly, ...) local_unnamed_addr #2

; Function Attrs: nofree nounwind
declare noundef i32 @printf(i8* nocapture noundef readonly, ...) local_unnamed_addr #2

; Function Attrs: argmemonly mustprogress nofree nosync nounwind willreturn
declare void @llvm.lifetime.end.p0i8(i64 immarg, i8* nocapture) #1


!llvm.module.flags = !{!0, !1, !2, !3}
!llvm.ident = !{!4}

!0 = !{i32 1, !"wchar_size", i32 4}
!1 = !{i32 7, !"PIC Level", i32 2}
!2 = !{i32 7, !"PIE Level", i32 2}
!3 = !{i32 7, !"uwtable", i32 1}
!4 = !{!"clang version 13.0.0"}
!5 = !{!6, !6, i64 0}
!6 = !{!"int", !7, i64 0}
!7 = !{!"omnipotent char", !8, i64 0}
!8 = !{!"Simple C/C++ TBAA"}
!9 = distinct !{!9, !10}
!10 = !{!"llvm.loop.mustprogress"}
!11 = distinct !{!11, !10, !12}
!12 = !{!"llvm.loop.unswitch.partial.disable"}
!13 = distinct !{!13, !10}
!14 = distinct !{!14, !10}
